(dp0
Vengine
p1
S'pdflatex'
p2
sVpackages
p3
c__builtin__
set
p4
((lp5
Vamsmath
p6
aVbabel
p7
aVinputenc
p8
aVtodonotes
p9
aVgraphicx
p10
atp11
Rp12
sVfiles_with_guttermarks
p13
g4
((lp14
S'project ideas.tex'
p15
atp16
Rp17
sVsynctex
p18
I01
s.